; ModuleID = '9/1589.c'
source_filename = "9/1589.c"
target datalayout = "e-m:e-p270:32:32-p271:32:32-p272:64:64-i64:64-f80:128-n8:16:32:64-S128"
target triple = "x86_64-pc-linux-gnu"

%struct.pati = type { [10 x i8], i32 }

@.str = private unnamed_addr constant [3 x i8] c"%d\00", align 1
@.str.1 = private unnamed_addr constant [6 x i8] c"%s %d\00", align 1
@p = common dso_local global [100 x %struct.pati] zeroinitializer, align 16
@.str.2 = private unnamed_addr constant [4 x i8] c"%s\0A\00", align 1

; Function Attrs: noinline nounwind uwtable
define dso_local void @main() #0 {
  %1 = alloca i32, align 4
  %2 = alloca i32, align 4
  %3 = alloca i32, align 4
  %4 = alloca [100 x i32], align 16
  %5 = alloca [100 x i32], align 16
  %6 = alloca i32, align 4
  %7 = alloca i32, align 4
  %8 = alloca i32, align 4
  %9 = bitcast [100 x i32]* %4 to i8*
  call void @llvm.memset.p0i8.i64(i8* align 16 %9, i8 0, i64 400, i1 false)
  %10 = bitcast [100 x i32]* %5 to i8*
  call void @llvm.memset.p0i8.i64(i8* align 16 %10, i8 0, i64 400, i1 false)
  store i32 0, i32* %6, align 4
  store i32 0, i32* %7, align 4
  %11 = call i32 (i8*, ...) @__isoc99_scanf(i8* getelementptr inbounds ([3 x i8], [3 x i8]* @.str, i64 0, i64 0), i32* %3)
  store i32 0, i32* %1, align 4
  br label %12

12:                                               ; preds = %45, %0
  %13 = load i32, i32* %1, align 4
  %14 = load i32, i32* %3, align 4
  %15 = icmp slt i32 %13, %14
  br i1 %15, label %16, label %48

16:                                               ; preds = %12
  %17 = load i32, i32* %1, align 4
  %18 = sext i32 %17 to i64
  %19 = getelementptr inbounds [100 x %struct.pati], [100 x %struct.pati]* @p, i64 0, i64 %18
  %20 = getelementptr inbounds %struct.pati, %struct.pati* %19, i32 0, i32 0
  %21 = getelementptr inbounds [10 x i8], [10 x i8]* %20, i64 0, i64 0
  %22 = load i32, i32* %1, align 4
  %23 = sext i32 %22 to i64
  %24 = getelementptr inbounds [100 x %struct.pati], [100 x %struct.pati]* @p, i64 0, i64 %23
  %25 = getelementptr inbounds %struct.pati, %struct.pati* %24, i32 0, i32 1
  %26 = call i32 (i8*, ...) @__isoc99_scanf(i8* getelementptr inbounds ([6 x i8], [6 x i8]* @.str.1, i64 0, i64 0), i8* %21, i32* %25)
  %27 = load i32, i32* %1, align 4
  %28 = sext i32 %27 to i64
  %29 = getelementptr inbounds [100 x %struct.pati], [100 x %struct.pati]* @p, i64 0, i64 %28
  %30 = getelementptr inbounds %struct.pati, %struct.pati* %29, i32 0, i32 1
  %31 = load i32, i32* %30, align 4
  %32 = icmp sge i32 %31, 60
  br i1 %32, label %33, label %44

33:                                               ; preds = %16
  %34 = load i32, i32* %1, align 4
  %35 = sext i32 %34 to i64
  %36 = getelementptr inbounds [100 x %struct.pati], [100 x %struct.pati]* @p, i64 0, i64 %35
  %37 = getelementptr inbounds %struct.pati, %struct.pati* %36, i32 0, i32 1
  %38 = load i32, i32* %37, align 4
  %39 = load i32, i32* %6, align 4
  %40 = sext i32 %39 to i64
  %41 = getelementptr inbounds [100 x i32], [100 x i32]* %4, i64 0, i64 %40
  store i32 %38, i32* %41, align 4
  %42 = load i32, i32* %6, align 4
  %43 = add nsw i32 %42, 1
  store i32 %43, i32* %6, align 4
  br label %44

44:                                               ; preds = %33, %16
  br label %45

45:                                               ; preds = %44
  %46 = load i32, i32* %1, align 4
  %47 = add nsw i32 %46, 1
  store i32 %47, i32* %1, align 4
  br label %12

48:                                               ; preds = %12
  store i32 0, i32* %1, align 4
  br label %49

49:                                               ; preds = %96, %48
  %50 = load i32, i32* %1, align 4
  %51 = load i32, i32* %6, align 4
  %52 = sub nsw i32 %51, 1
  %53 = icmp slt i32 %50, %52
  br i1 %53, label %54, label %99

54:                                               ; preds = %49
  store i32 0, i32* %2, align 4
  br label %55

55:                                               ; preds = %92, %54
  %56 = load i32, i32* %2, align 4
  %57 = load i32, i32* %6, align 4
  %58 = sub nsw i32 %57, 1
  %59 = load i32, i32* %1, align 4
  %60 = sub nsw i32 %58, %59
  %61 = icmp slt i32 %56, %60
  br i1 %61, label %62, label %95

62:                                               ; preds = %55
  %63 = load i32, i32* %2, align 4
  %64 = sext i32 %63 to i64
  %65 = getelementptr inbounds [100 x i32], [100 x i32]* %4, i64 0, i64 %64
  %66 = load i32, i32* %65, align 4
  %67 = load i32, i32* %2, align 4
  %68 = add nsw i32 %67, 1
  %69 = sext i32 %68 to i64
  %70 = getelementptr inbounds [100 x i32], [100 x i32]* %4, i64 0, i64 %69
  %71 = load i32, i32* %70, align 4
  %72 = icmp slt i32 %66, %71
  br i1 %72, label %73, label %91

73:                                               ; preds = %62
  %74 = load i32, i32* %2, align 4
  %75 = add nsw i32 %74, 1
  %76 = sext i32 %75 to i64
  %77 = getelementptr inbounds [100 x i32], [100 x i32]* %4, i64 0, i64 %76
  %78 = load i32, i32* %77, align 4
  store i32 %78, i32* %8, align 4
  %79 = load i32, i32* %2, align 4
  %80 = sext i32 %79 to i64
  %81 = getelementptr inbounds [100 x i32], [100 x i32]* %4, i64 0, i64 %80
  %82 = load i32, i32* %81, align 4
  %83 = load i32, i32* %2, align 4
  %84 = add nsw i32 %83, 1
  %85 = sext i32 %84 to i64
  %86 = getelementptr inbounds [100 x i32], [100 x i32]* %4, i64 0, i64 %85
  store i32 %82, i32* %86, align 4
  %87 = load i32, i32* %8, align 4
  %88 = load i32, i32* %2, align 4
  %89 = sext i32 %88 to i64
  %90 = getelementptr inbounds [100 x i32], [100 x i32]* %4, i64 0, i64 %89
  store i32 %87, i32* %90, align 4
  br label %91

91:                                               ; preds = %73, %62
  br label %92

92:                                               ; preds = %91
  %93 = load i32, i32* %2, align 4
  %94 = add nsw i32 %93, 1
  store i32 %94, i32* %2, align 4
  br label %55

95:                                               ; preds = %55
  br label %96

96:                                               ; preds = %95
  %97 = load i32, i32* %1, align 4
  %98 = add nsw i32 %97, 1
  store i32 %98, i32* %1, align 4
  br label %49

99:                                               ; preds = %49
  store i32 0, i32* %1, align 4
  br label %100

100:                                              ; preds = %140, %99
  %101 = load i32, i32* %1, align 4
  %102 = load i32, i32* %6, align 4
  %103 = icmp slt i32 %101, %102
  br i1 %103, label %104, label %143

104:                                              ; preds = %100
  %105 = load i32, i32* %1, align 4
  %106 = icmp sgt i32 %105, 0
  br i1 %106, label %107, label %129

107:                                              ; preds = %104
  %108 = load i32, i32* %1, align 4
  %109 = sext i32 %108 to i64
  %110 = getelementptr inbounds [100 x i32], [100 x i32]* %4, i64 0, i64 %109
  %111 = load i32, i32* %110, align 4
  %112 = load i32, i32* %1, align 4
  %113 = sub nsw i32 %112, 1
  %114 = sext i32 %113 to i64
  %115 = getelementptr inbounds [100 x i32], [100 x i32]* %4, i64 0, i64 %114
  %116 = load i32, i32* %115, align 4
  %117 = icmp ne i32 %111, %116
  br i1 %117, label %118, label %128

118:                                              ; preds = %107
  %119 = load i32, i32* %1, align 4
  %120 = sext i32 %119 to i64
  %121 = getelementptr inbounds [100 x i32], [100 x i32]* %4, i64 0, i64 %120
  %122 = load i32, i32* %121, align 4
  %123 = load i32, i32* %7, align 4
  %124 = sext i32 %123 to i64
  %125 = getelementptr inbounds [100 x i32], [100 x i32]* %5, i64 0, i64 %124
  store i32 %122, i32* %125, align 4
  %126 = load i32, i32* %7, align 4
  %127 = add nsw i32 %126, 1
  store i32 %127, i32* %7, align 4
  br label %128

128:                                              ; preds = %118, %107
  br label %139

129:                                              ; preds = %104
  %130 = load i32, i32* %1, align 4
  %131 = sext i32 %130 to i64
  %132 = getelementptr inbounds [100 x i32], [100 x i32]* %4, i64 0, i64 %131
  %133 = load i32, i32* %132, align 4
  %134 = load i32, i32* %7, align 4
  %135 = sext i32 %134 to i64
  %136 = getelementptr inbounds [100 x i32], [100 x i32]* %5, i64 0, i64 %135
  store i32 %133, i32* %136, align 4
  %137 = load i32, i32* %7, align 4
  %138 = add nsw i32 %137, 1
  store i32 %138, i32* %7, align 4
  br label %139

139:                                              ; preds = %129, %128
  br label %140

140:                                              ; preds = %139
  %141 = load i32, i32* %1, align 4
  %142 = add nsw i32 %141, 1
  store i32 %142, i32* %1, align 4
  br label %100

143:                                              ; preds = %100
  store i32 0, i32* %6, align 4
  store i32 0, i32* %1, align 4
  br label %144

144:                                              ; preds = %178, %143
  %145 = load i32, i32* %1, align 4
  %146 = load i32, i32* %3, align 4
  %147 = icmp slt i32 %145, %146
  br i1 %147, label %148, label %181

148:                                              ; preds = %144
  store i32 0, i32* %2, align 4
  br label %149

149:                                              ; preds = %172, %148
  %150 = load i32, i32* %2, align 4
  %151 = load i32, i32* %3, align 4
  %152 = icmp slt i32 %150, %151
  br i1 %152, label %153, label %175

153:                                              ; preds = %149
  %154 = load i32, i32* %2, align 4
  %155 = sext i32 %154 to i64
  %156 = getelementptr inbounds [100 x %struct.pati], [100 x %struct.pati]* @p, i64 0, i64 %155
  %157 = getelementptr inbounds %struct.pati, %struct.pati* %156, i32 0, i32 1
  %158 = load i32, i32* %157, align 4
  %159 = load i32, i32* %6, align 4
  %160 = sext i32 %159 to i64
  %161 = getelementptr inbounds [100 x i32], [100 x i32]* %5, i64 0, i64 %160
  %162 = load i32, i32* %161, align 4
  %163 = icmp eq i32 %158, %162
  br i1 %163, label %164, label %171

164:                                              ; preds = %153
  %165 = load i32, i32* %2, align 4
  %166 = sext i32 %165 to i64
  %167 = getelementptr inbounds [100 x %struct.pati], [100 x %struct.pati]* @p, i64 0, i64 %166
  %168 = getelementptr inbounds %struct.pati, %struct.pati* %167, i32 0, i32 0
  %169 = getelementptr inbounds [10 x i8], [10 x i8]* %168, i64 0, i64 0
  %170 = call i32 (i8*, ...) @printf(i8* getelementptr inbounds ([4 x i8], [4 x i8]* @.str.2, i64 0, i64 0), i8* %169)
  br label %171

171:                                              ; preds = %164, %153
  br label %172

172:                                              ; preds = %171
  %173 = load i32, i32* %2, align 4
  %174 = add nsw i32 %173, 1
  store i32 %174, i32* %2, align 4
  br label %149

175:                                              ; preds = %149
  %176 = load i32, i32* %6, align 4
  %177 = add nsw i32 %176, 1
  store i32 %177, i32* %6, align 4
  br label %178

178:                                              ; preds = %175
  %179 = load i32, i32* %1, align 4
  %180 = add nsw i32 %179, 1
  store i32 %180, i32* %1, align 4
  br label %144

181:                                              ; preds = %144
  store i32 0, i32* %1, align 4
  br label %182

182:                                              ; preds = %201, %181
  %183 = load i32, i32* %1, align 4
  %184 = load i32, i32* %3, align 4
  %185 = icmp slt i32 %183, %184
  br i1 %185, label %186, label %204

186:                                              ; preds = %182
  %187 = load i32, i32* %1, align 4
  %188 = sext i32 %187 to i64
  %189 = getelementptr inbounds [100 x %struct.pati], [100 x %struct.pati]* @p, i64 0, i64 %188
  %190 = getelementptr inbounds %struct.pati, %struct.pati* %189, i32 0, i32 1
  %191 = load i32, i32* %190, align 4
  %192 = icmp slt i32 %191, 60
  br i1 %192, label %193, label %200

193:                                              ; preds = %186
  %194 = load i32, i32* %1, align 4
  %195 = sext i32 %194 to i64
  %196 = getelementptr inbounds [100 x %struct.pati], [100 x %struct.pati]* @p, i64 0, i64 %195
  %197 = getelementptr inbounds %struct.pati, %struct.pati* %196, i32 0, i32 0
  %198 = getelementptr inbounds [10 x i8], [10 x i8]* %197, i64 0, i64 0
  %199 = call i32 (i8*, ...) @printf(i8* getelementptr inbounds ([4 x i8], [4 x i8]* @.str.2, i64 0, i64 0), i8* %198)
  br label %200

200:                                              ; preds = %193, %186
  br label %201

201:                                              ; preds = %200
  %202 = load i32, i32* %1, align 4
  %203 = add nsw i32 %202, 1
  store i32 %203, i32* %1, align 4
  br label %182

204:                                              ; preds = %182
  ret void
}

; Function Attrs: argmemonly nounwind willreturn
declare void @llvm.memset.p0i8.i64(i8* nocapture writeonly, i8, i64, i1 immarg) #1

declare dso_local i32 @__isoc99_scanf(i8*, ...) #2

declare dso_local i32 @printf(i8*, ...) #2


!llvm.module.flags = !{!0}
!llvm.ident = !{!1}

!0 = !{i32 1, !"wchar_size", i32 4}
!1 = !{!"clang version 10.0.0-4ubuntu1 "}
